; Function Attrs: nounwind uwtable
define dso_local void @ustr_setlen(ptr noundef captures(none) %0, i32 noundef %1, ptr noundef captures(none) %2) local_unnamed_addr #1 {
  %4 = load i32, ptr %2, align 4, !tbaa !4
  %5 = icmp sgt i32 %4, 0
  br i1 %5, label %29, label %6

6:                                                ; preds = %3
  %7 = getelementptr inbounds nuw i8, ptr %0, i64 12
  %8 = load i32, ptr %7, align 4, !tbaa !13
  %.not = icmp sgt i32 %8, %1
  %.pre = load ptr, ptr %0, align 8, !tbaa !8
  br i1 %.not, label %24, label %9

9:                                                ; preds = %6
  %10 = icmp slt i32 %1, 128
  %11 = shl nsw i32 %1, 1
  %12 = and i32 %11, -128
  %13 = add nsw i32 %12, 128
  %14 = select i1 %10, i32 128, i32 %13
  %15 = or disjoint i32 %14, 1
  %16 = sext i32 %15 to i64
  %17 = shl nsw i64 %16, 1
  %18 = tail call ptr @uprv_realloc_77(ptr noundef %.pre, i64 noundef %17) #9
  store ptr %18, ptr %0, align 8, !tbaa !8
  %19 = icmp eq ptr %18, null
  br i1 %19, label %20, label %ustr_resize.exit

20:                                               ; preds = %9
  store i32 7, ptr %2, align 4, !tbaa !4
  %21 = getelementptr inbounds nuw i8, ptr %0, i64 8
  store i32 0, ptr %21, align 8, !tbaa !12
  br label %ustr_resize.exit

ustr_resize.exit:                                 ; preds = %9, %20
  %.sink = phi i32 [ 0, %20 ], [ %14, %9 ]
  store i32 %.sink, ptr %7, align 4, !tbaa !13
  %22 = load i32, ptr %2, align 4, !tbaa !4
  %23 = icmp sgt i32 %22, 0
  br i1 %23, label %29, label %24

24:                                               ; preds = %ustr_resize.exit, %6
  %25 = phi ptr [ %18, %ustr_resize.exit ], [ %.pre, %6 ]
  %26 = getelementptr inbounds nuw i8, ptr %0, i64 8
  store i32 %1, ptr %26, align 8, !tbaa !12
  %27 = sext i32 %1 to i64
  %28 = getelementptr inbounds i16, ptr %25, i64 %27
  store i16 0, ptr %28, align 2, !tbaa !14
  br label %29

29:                                               ; preds = %ustr_resize.exit, %3, %24
  ret void
}